; Function Attrs: nounwind uwtable
define dso_local void @uv_key_delete(ptr noundef readonly captures(none) %0) local_unnamed_addr #0 {
  %2 = load i32, ptr %0, align 4, !tbaa !14
  %3 = tail call i32 @pthread_key_delete(i32 noundef %2) #10
  %.not = icmp eq i32 %3, 0
  br i1 %.not, label %5, label %4

4:                                                ; preds = %1
  tail call void @abort() #11
  unreachable

5:                                                ; preds = %1
  ret void
}